; Function Attrs: mustprogress uwtable
define internal void @_ZN12_GLOBAL__N_151HyperscanArgChecks_DeserializeDatabaseBadBytes_Test8TestBodyEv(ptr nonnull readnone align 8 captures(none) %0) unnamed_addr #7 align 2 personality ptr @__gxx_personality_v0 {
  %2 = alloca ptr, align 8
  %3 = alloca i64, align 8
  %4 = alloca ptr, align 8
  %5 = alloca i32, align 4
  %6 = alloca %"class.testing::AssertionResult", align 8
  %7 = alloca i32, align 4
  %8 = alloca %"class.testing::Message", align 8
  %9 = alloca %"class.testing::internal::AssertHelper", align 8
  call void @llvm.lifetime.start.p0(i64 8, ptr nonnull %2) #27
  store ptr null, ptr %2, align 8
  call void @llvm.lifetime.start.p0(i64 8, ptr nonnull %3) #27
  store i64 0, ptr %3, align 8
  call fastcc void @_ZN12_GLOBAL__N_122makeSerializedDatabaseEPPcPm(ptr noundef %2, ptr noundef %3)
  %10 = load ptr, ptr %2, align 8
  %11 = load i64, ptr %3, align 8
  call void @llvm.memset.p0.i64(ptr align 1 %10, i8 -1, i64 %11, i1 false)
  call void @llvm.lifetime.start.p0(i64 8, ptr nonnull %4) #27
  store ptr null, ptr %4, align 8
  call void @llvm.lifetime.start.p0(i64 4, ptr nonnull %5) #27
  %12 = load ptr, ptr %2, align 8
  %13 = load i64, ptr %3, align 8
  %14 = call i32 @hs_deserialize_database(ptr noundef %12, i64 noundef %13, ptr noundef nonnull %4)
  store i32 %14, ptr %5, align 4
  call void @llvm.lifetime.start.p0(i64 16, ptr nonnull %6) #27
  call void @llvm.lifetime.start.p0(i64 4, ptr nonnull %7) #27
  store i32 -1, ptr %7, align 4
  call void @_ZN7testing8internal11CmpHelperEQIiiEENS_15AssertionResultEPKcS4_RKT_RKT0_(ptr dead_on_unwind nonnull writable sret(%"class.testing::AssertionResult") align 8 %6, ptr noundef nonnull @.str.324, ptr noundef nonnull @.str.302, ptr noundef nonnull align 4 dereferenceable(4) %7, ptr noundef nonnull align 4 dereferenceable(4) %5)
  call void @llvm.lifetime.end.p0(i64 4, ptr nonnull %7) #27
  %15 = load i8, ptr %6, align 8, !range !14, !noundef !15
  %16 = trunc nuw i8 %15 to i1
  br i1 %16, label %.critedge, label %17

17:                                               ; preds = %1
  call void @llvm.lifetime.start.p0(i64 8, ptr nonnull %8) #27
  invoke void @_ZN7testing7MessageC1Ev(ptr noundef nonnull align 8 dereferenceable(8) %8)
          to label %18 unwind label %55

18:                                               ; preds = %17
  call void @llvm.lifetime.start.p0(i64 8, ptr nonnull %9) #27
  %19 = getelementptr inbounds nuw i8, ptr %6, i64 8
  %20 = load ptr, ptr %19, align 8
  %.not.i.i = icmp eq ptr %20, null
  br i1 %.not.i.i, label %_ZNK7testing15AssertionResult15failure_messageEv.exit, label %21

21:                                               ; preds = %18
  %22 = load ptr, ptr %20, align 8
  br label %_ZNK7testing15AssertionResult15failure_messageEv.exit

_ZNK7testing15AssertionResult15failure_messageEv.exit: ; preds = %21, %18
  %23 = phi ptr [ %22, %21 ], [ @.str.292, %18 ]
  invoke void @_ZN7testing8internal12AssertHelperC1ENS_14TestPartResult4TypeEPKciS5_(ptr noundef nonnull align 8 dereferenceable(8) %9, i32 noundef 2, ptr noundef nonnull @.str.286, i32 noundef 1916, ptr noundef %23)
          to label %24 unwind label %57

24:                                               ; preds = %_ZNK7testing15AssertionResult15failure_messageEv.exit
  invoke void @_ZNK7testing8internal12AssertHelperaSERKNS_7MessageE(ptr noundef nonnull align 8 dereferenceable(8) %9, ptr noundef nonnull align 8 dereferenceable(8) %8)
          to label %25 unwind label %59

25:                                               ; preds = %24
  call void @_ZN7testing8internal12AssertHelperD1Ev(ptr noundef nonnull align 8 dereferenceable(8) %9) #27
  call void @llvm.lifetime.end.p0(i64 8, ptr nonnull %9) #27
  %26 = load ptr, ptr %8, align 8
  %.not.i.i.i = icmp eq ptr %26, null
  br i1 %.not.i.i.i, label %_ZN7testing7MessageD2Ev.exit, label %27

27:                                               ; preds = %25
  %28 = invoke noundef zeroext i1 @_ZN7testing8internal6IsTrueEb(i1 noundef zeroext true)
          to label %.noexc.i.i unwind label %36

.noexc.i.i:                                       ; preds = %27
  br i1 %28, label %29, label %_ZN7testing7MessageD2Ev.exit

29:                                               ; preds = %.noexc.i.i
  %30 = load ptr, ptr %8, align 8
  %31 = icmp eq ptr %30, null
  br i1 %31, label %_ZN7testing7MessageD2Ev.exit, label %32

32:                                               ; preds = %29
  %33 = load ptr, ptr %30, align 8
  %34 = getelementptr inbounds nuw i8, ptr %33, i64 8
  %35 = load ptr, ptr %34, align 8
  call void %35(ptr noundef nonnull align 8 dereferenceable(128) %30) #27
  br label %_ZN7testing7MessageD2Ev.exit

36:                                               ; preds = %27
  %37 = landingpad { ptr, i32 }
          catch ptr null
  %38 = extractvalue { ptr, i32 } %37, 0
  call void @__clang_call_terminate(ptr %38) #28
  unreachable

_ZN7testing7MessageD2Ev.exit:                     ; preds = %.noexc.i.i, %29, %32, %25
  call void @llvm.lifetime.end.p0(i64 8, ptr nonnull %8) #27
  %39 = load ptr, ptr %19, align 8
  %.not.i.i.i7 = icmp eq ptr %39, null
  br i1 %.not.i.i.i7, label %_ZN7testing15AssertionResultD2Ev.exit, label %40

40:                                               ; preds = %_ZN7testing7MessageD2Ev.exit
  %41 = invoke noundef zeroext i1 @_ZN7testing8internal6IsTrueEb(i1 noundef zeroext true)
          to label %.noexc.i.i8 unwind label %52

.noexc.i.i8:                                      ; preds = %40
  br i1 %41, label %42, label %_ZN7testing15AssertionResultD2Ev.exit

42:                                               ; preds = %.noexc.i.i8
  %43 = load ptr, ptr %19, align 8
  %44 = icmp eq ptr %43, null
  br i1 %44, label %_ZN7testing15AssertionResultD2Ev.exit, label %45

45:                                               ; preds = %42
  %46 = load ptr, ptr %43, align 8
  %47 = getelementptr inbounds nuw i8, ptr %43, i64 16
  %48 = icmp eq ptr %46, %47
  br i1 %48, label %_ZNKSt7__cxx1112basic_stringIcSt11char_traitsIcESaIcEE11_M_is_localEv.exit.thread.i.i.i.i.i, label %_ZNKSt7__cxx1112basic_stringIcSt11char_traitsIcESaIcEE11_M_is_localEv.exit.i.i.i.i.i

_ZNKSt7__cxx1112basic_stringIcSt11char_traitsIcESaIcEE11_M_is_localEv.exit.thread.i.i.i.i.i: ; preds = %45
  %49 = getelementptr inbounds nuw i8, ptr %43, i64 8
  %50 = load i64, ptr %49, align 8
  %51 = icmp ult i64 %50, 16
  call void @llvm.assume(i1 %51)
  br label %_ZNSt7__cxx1112basic_stringIcSt11char_traitsIcESaIcEED2Ev.exit.i.i.i

_ZNKSt7__cxx1112basic_stringIcSt11char_traitsIcESaIcEE11_M_is_localEv.exit.i.i.i.i.i: ; preds = %45
  call void @_ZdlPv(ptr noundef %46) #31
  br label %_ZNSt7__cxx1112basic_stringIcSt11char_traitsIcESaIcEED2Ev.exit.i.i.i

_ZNSt7__cxx1112basic_stringIcSt11char_traitsIcESaIcEED2Ev.exit.i.i.i: ; preds = %_ZNKSt7__cxx1112basic_stringIcSt11char_traitsIcESaIcEE11_M_is_localEv.exit.i.i.i.i.i, %_ZNKSt7__cxx1112basic_stringIcSt11char_traitsIcESaIcEE11_M_is_localEv.exit.thread.i.i.i.i.i
  call void @_ZdlPv(ptr noundef nonnull %43) #31
  br label %_ZN7testing15AssertionResultD2Ev.exit

52:                                               ; preds = %40
  %53 = landingpad { ptr, i32 }
          catch ptr null
  %54 = extractvalue { ptr, i32 } %53, 0
  call void @__clang_call_terminate(ptr %54) #28
  unreachable

_ZN7testing15AssertionResultD2Ev.exit:            ; preds = %.noexc.i.i8, %42, %_ZNSt7__cxx1112basic_stringIcSt11char_traitsIcESaIcEED2Ev.exit.i.i.i, %_ZN7testing7MessageD2Ev.exit
  call void @llvm.lifetime.end.p0(i64 16, ptr nonnull %6) #27
  br label %82

55:                                               ; preds = %17
  %56 = landingpad { ptr, i32 }
          cleanup
  br label %62

57:                                               ; preds = %_ZNK7testing15AssertionResult15failure_messageEv.exit
  %58 = landingpad { ptr, i32 }
          cleanup
  br label %61

59:                                               ; preds = %24
  %60 = landingpad { ptr, i32 }
          cleanup
  call void @_ZN7testing8internal12AssertHelperD1Ev(ptr noundef nonnull align 8 dereferenceable(8) %9) #27
  br label %61

61:                                               ; preds = %59, %57
  %.pn = phi { ptr, i32 } [ %60, %59 ], [ %58, %57 ]
  call void @llvm.lifetime.end.p0(i64 8, ptr nonnull %9) #27
  call void @_ZN7testing7MessageD2Ev(ptr noundef nonnull align 8 dereferenceable(8) %8) #27
  br label %62

62:                                               ; preds = %61, %55
  %.pn.pn = phi { ptr, i32 } [ %.pn, %61 ], [ %56, %55 ]
  call void @llvm.lifetime.end.p0(i64 8, ptr nonnull %8) #27
  call void @_ZN7testing15AssertionResultD2Ev(ptr noundef nonnull align 8 dereferenceable(16) %6) #27
  call void @llvm.lifetime.end.p0(i64 16, ptr nonnull %6) #27
  call void @llvm.lifetime.end.p0(i64 4, ptr nonnull %5) #27
  call void @llvm.lifetime.end.p0(i64 8, ptr nonnull %4) #27
  call void @llvm.lifetime.end.p0(i64 8, ptr nonnull %3) #27
  call void @llvm.lifetime.end.p0(i64 8, ptr nonnull %2) #27
  resume { ptr, i32 } %.pn.pn

.critedge:                                        ; preds = %1
  %63 = getelementptr inbounds nuw i8, ptr %6, i64 8
  %64 = load ptr, ptr %63, align 8
  %.not.i.i.i9 = icmp eq ptr %64, null
  br i1 %.not.i.i.i9, label %80, label %65

65:                                               ; preds = %.critedge
  %66 = invoke noundef zeroext i1 @_ZN7testing8internal6IsTrueEb(i1 noundef zeroext true)
          to label %.noexc.i.i10 unwind label %77

.noexc.i.i10:                                     ; preds = %65
  br i1 %66, label %67, label %80

67:                                               ; preds = %.noexc.i.i10
  %68 = load ptr, ptr %63, align 8
  %69 = icmp eq ptr %68, null
  br i1 %69, label %80, label %70

70:                                               ; preds = %67
  %71 = load ptr, ptr %68, align 8
  %72 = getelementptr inbounds nuw i8, ptr %68, i64 16
  %73 = icmp eq ptr %71, %72
  br i1 %73, label %_ZNKSt7__cxx1112basic_stringIcSt11char_traitsIcESaIcEE11_M_is_localEv.exit.thread.i.i.i.i.i13, label %_ZNKSt7__cxx1112basic_stringIcSt11char_traitsIcESaIcEE11_M_is_localEv.exit.i.i.i.i.i11

_ZNKSt7__cxx1112basic_stringIcSt11char_traitsIcESaIcEE11_M_is_localEv.exit.thread.i.i.i.i.i13: ; preds = %70
  %74 = getelementptr inbounds nuw i8, ptr %68, i64 8
  %75 = load i64, ptr %74, align 8
  %76 = icmp ult i64 %75, 16
  call void @llvm.assume(i1 %76)
  br label %_ZNSt7__cxx1112basic_stringIcSt11char_traitsIcESaIcEED2Ev.exit.i.i.i12

_ZNKSt7__cxx1112basic_stringIcSt11char_traitsIcESaIcEE11_M_is_localEv.exit.i.i.i.i.i11: ; preds = %70
  call void @_ZdlPv(ptr noundef %71) #31
  br label %_ZNSt7__cxx1112basic_stringIcSt11char_traitsIcESaIcEED2Ev.exit.i.i.i12

_ZNSt7__cxx1112basic_stringIcSt11char_traitsIcESaIcEED2Ev.exit.i.i.i12: ; preds = %_ZNKSt7__cxx1112basic_stringIcSt11char_traitsIcESaIcEE11_M_is_localEv.exit.i.i.i.i.i11, %_ZNKSt7__cxx1112basic_stringIcSt11char_traitsIcESaIcEE11_M_is_localEv.exit.thread.i.i.i.i.i13
  call void @_ZdlPv(ptr noundef nonnull %68) #31
  br label %80

77:                                               ; preds = %65
  %78 = landingpad { ptr, i32 }
          catch ptr null
  %79 = extractvalue { ptr, i32 } %78, 0
  call void @__clang_call_terminate(ptr %79) #28
  unreachable

80:                                               ; preds = %.noexc.i.i10, %67, %_ZNSt7__cxx1112basic_stringIcSt11char_traitsIcESaIcEED2Ev.exit.i.i.i12, %.critedge
  call void @llvm.lifetime.end.p0(i64 16, ptr nonnull %6) #27
  %81 = load ptr, ptr %2, align 8
  call void @free(ptr noundef %81) #27
  br label %82

82:                                               ; preds = %_ZN7testing15AssertionResultD2Ev.exit, %80
  call void @llvm.lifetime.end.p0(i64 4, ptr nonnull %5) #27
  call void @llvm.lifetime.end.p0(i64 8, ptr nonnull %4) #27
  call void @llvm.lifetime.end.p0(i64 8, ptr nonnull %3) #27
  call void @llvm.lifetime.end.p0(i64 8, ptr nonnull %2) #27
  ret void
}